(dp1
Vapostoae
p2
(I3
(lp3
S'apostoae1913'
p4
aS'apostoae1971'
p5
aS'apostoae1366'
p6
aS'apostoae1398'
p7
aS'apostoae1583'
p8
a(lp9
S'f1b5de0edd8c1507bff96ffbf2ed497e'
p10
aS'dd2d477bb835bbd2c390d4ad4a4fd1ab'
p11
aS'287c5270c1a4684dd7155651ceb39dff'
p12
aS'0f5a348d1976445f4288b134f2e8f4fe'
p13
aS'5446afe19d9e057f2541b309808f7f45'
p14
a(lp15
I00
aI00
aI00
aI00
aI00
atp16
sVwww
p17
(I1
(lp18
S'www103'
p19
aS'www675'
p20
aS'www690'
p21
aS'www366'
p22
aS'www492'
p23
a(lp24
S'bbea88cf899567f6097c75fddb95f083'
p25
aS'd8b9261bd9f765ee8c5c7e92ef3fd5f8'
p26
aS'a2312ccd9ab05df41782afcf4f419e14'
p27
aS'c7dc499e85fe97315f83bcfe6fda762e'
p28
aS'cb51949109f78fe367ee50ac69d1894f'
p29
a(lp30
I00
aI00
aI00
aI00
aI00
atp31
s.